
kernel.elf:     file format elf32-littlearm


Disassembly of section .text:

00008000 <_start>:
    8000:	e59ff018 	ldr	pc, [pc, #24]	; 8020 <_reset_h>
    8004:	e59ff018 	ldr	pc, [pc, #24]	; 8024 <_undefined_instruction_vector_h>
    8008:	e59ff018 	ldr	pc, [pc, #24]	; 8028 <_software_interrupt_vector_h>
    800c:	e59ff018 	ldr	pc, [pc, #24]	; 802c <_prefetch_abort_vector_h>
    8010:	e59ff018 	ldr	pc, [pc, #24]	; 8030 <_data_abort_vector_h>
    8014:	e59ff018 	ldr	pc, [pc, #24]	; 8034 <_unused_handler_h>
    8018:	e59ff018 	ldr	pc, [pc, #24]	; 8038 <_interrupt_vector_h>
    801c:	e59ff018 	ldr	pc, [pc, #24]	; 803c <_fast_interrupt_vector_h>

00008020 <_reset_h>:
    8020:	00008040 	andeq	r8, r0, r0, asr #32

00008024 <_undefined_instruction_vector_h>:
    8024:	000083e4 	andeq	r8, r0, r4, ror #7

00008028 <_software_interrupt_vector_h>:
    8028:	00008d58 	andeq	r8, r0, r8, asr sp

0000802c <_prefetch_abort_vector_h>:
    802c:	0000844c 	andeq	r8, r0, ip, asr #8

00008030 <_data_abort_vector_h>:
    8030:	00008484 	andeq	r8, r0, r4, lsl #9

00008034 <_unused_handler_h>:
    8034:	00008040 	andeq	r8, r0, r0, asr #32

00008038 <_interrupt_vector_h>:
    8038:	000084bc 			; <UNDEFINED> instruction: 0x000084bc

0000803c <_fast_interrupt_vector_h>:
    803c:	000085c0 	andeq	r8, r0, r0, asr #11

00008040 <_reset_>:
    8040:	e3a00902 	mov	r0, #32768	; 0x8000
    8044:	e3a01000 	mov	r1, #0
    8048:	e8b003fc 	ldm	r0!, {r2, r3, r4, r5, r6, r7, r8, r9}
    804c:	e8a103fc 	stmia	r1!, {r2, r3, r4, r5, r6, r7, r8, r9}
    8050:	e8b003fc 	ldm	r0!, {r2, r3, r4, r5, r6, r7, r8, r9}
    8054:	e8a103fc 	stmia	r1!, {r2, r3, r4, r5, r6, r7, r8, r9}
    8058:	e3a000d2 	mov	r0, #210	; 0xd2
    805c:	e121f000 	msr	CPSR_c, r0
    8060:	e3a0da06 	mov	sp, #24576	; 0x6000
    8064:	e3a000df 	mov	r0, #223	; 0xdf
    8068:	e121f000 	msr	CPSR_c, r0
    806c:	e3a0d901 	mov	sp, #16384	; 0x4000
    8070:	e3a000d3 	mov	r0, #211	; 0xd3
    8074:	e121f000 	msr	CPSR_c, r0
    8078:	e3a0d902 	mov	sp, #32768	; 0x8000
    807c:	ea000009 	b	80a8 <_cstartup>

00008080 <_inf_loop>:
    8080:	eafffffe 	b	8080 <_inf_loop>

00008084 <_enable_interrupts>:
    8084:	e10f0000 	mrs	r0, CPSR
    8088:	e3c00080 	bic	r0, r0, #128	; 0x80
    808c:	e121f000 	msr	CPSR_c, r0
    8090:	e1a0f00e 	mov	pc, lr

00008094 <dummy_a_h>:
    8094:	00008114 	andeq	r8, r0, r4, lsl r1

00008098 <_init>:
    8098:	e3a0e010 	mov	lr, #16
    809c:	e161f00e 	msr	SPSR_c, lr
    80a0:	e51fe014 	ldr	lr, [pc, #-20]	; 8094 <dummy_a_h>
    80a4:	e1b0f00e 	movs	pc, lr

000080a8 <_cstartup>:
    80a8:	e92d4800 	push	{fp, lr}
    80ac:	e28db004 	add	fp, sp, #4
    80b0:	e24dd018 	sub	sp, sp, #24
    80b4:	e50b0010 	str	r0, [fp, #-16]
    80b8:	e50b1014 	str	r1, [fp, #-20]	; 0xffffffec
    80bc:	e50b2018 	str	r2, [fp, #-24]	; 0xffffffe8
    80c0:	e59f3044 	ldr	r3, [pc, #68]	; 810c <_cstartup+0x64>
    80c4:	e50b3008 	str	r3, [fp, #-8]
    80c8:	e59f3040 	ldr	r3, [pc, #64]	; 8110 <_cstartup+0x68>
    80cc:	e50b300c 	str	r3, [fp, #-12]
    80d0:	ea000004 	b	80e8 <_cstartup+0x40>
    80d4:	e51b3008 	ldr	r3, [fp, #-8]
    80d8:	e2832004 	add	r2, r3, #4
    80dc:	e50b2008 	str	r2, [fp, #-8]
    80e0:	e3a02000 	mov	r2, #0
    80e4:	e5832000 	str	r2, [r3]
    80e8:	e51b2008 	ldr	r2, [fp, #-8]
    80ec:	e51b300c 	ldr	r3, [fp, #-12]
    80f0:	e1520003 	cmp	r2, r3
    80f4:	3afffff6 	bcc	80d4 <_cstartup+0x2c>
    80f8:	e51b2018 	ldr	r2, [fp, #-24]	; 0xffffffe8
    80fc:	e51b1014 	ldr	r1, [fp, #-20]	; 0xffffffec
    8100:	e51b0010 	ldr	r0, [fp, #-16]
    8104:	eb000014 	bl	815c <kernel_main>
    8108:	eafffffe 	b	8108 <_cstartup+0x60>
    810c:	00008dea 	andeq	r8, r0, sl, ror #27
    8110:	00008e0c 	andeq	r8, r0, ip, lsl #28

00008114 <dummy_a>:
    8114:	e52db004 	push	{fp}		; (str fp, [sp, #-4]!)
    8118:	e28db000 	add	fp, sp, #0
    811c:	ef000000 	svc	0x00000000
    8120:	eafffffd 	b	811c <dummy_a+0x8>

00008124 <dummy_b>:
    8124:	e92d4800 	push	{fp, lr}
    8128:	e28db004 	add	fp, sp, #4
    812c:	e24dd008 	sub	sp, sp, #8
    8130:	e3a03062 	mov	r3, #98	; 0x62
    8134:	e54b3005 	strb	r3, [fp, #-5]
    8138:	e59f3018 	ldr	r3, [pc, #24]	; 8158 <dummy_b+0x34>
    813c:	e50b300c 	str	r3, [fp, #-12]
    8140:	e55b3005 	ldrb	r3, [fp, #-5]
    8144:	e1a00003 	mov	r0, r3
    8148:	eb0001a0 	bl	87d0 <RPI_WriteToMiniUart>
    814c:	e51b000c 	ldr	r0, [fp, #-12]
    8150:	eb000127 	bl	85f4 <RPI_WaitMicroSeconds>
    8154:	eafffff9 	b	8140 <dummy_b+0x1c>
    8158:	000f4240 	andeq	r4, pc, r0, asr #4

0000815c <kernel_main>:
    815c:	e92d4800 	push	{fp, lr}
    8160:	e28db004 	add	fp, sp, #4
    8164:	e24dd030 	sub	sp, sp, #48	; 0x30
    8168:	e50b0028 	str	r0, [fp, #-40]	; 0xffffffd8
    816c:	e50b102c 	str	r1, [fp, #-44]	; 0xffffffd4
    8170:	e50b2030 	str	r2, [fp, #-48]	; 0xffffffd0
    8174:	eb00002d 	bl	8230 <RPI_GetGpio>
    8178:	e1a03000 	mov	r3, r0
    817c:	e5932004 	ldr	r2, [r3, #4]
    8180:	e3822701 	orr	r2, r2, #262144	; 0x40000
    8184:	e5832004 	str	r2, [r3, #4]
    8188:	eb00007e 	bl	8388 <RPI_GetIrqController>
    818c:	e1a02000 	mov	r2, r0
    8190:	e3a03001 	mov	r3, #1
    8194:	e5823018 	str	r3, [r2, #24]
    8198:	eb000015 	bl	81f4 <RPI_GetArmTimer>
    819c:	e1a02000 	mov	r2, r0
    81a0:	e3a03b01 	mov	r3, #1024	; 0x400
    81a4:	e5823000 	str	r3, [r2]
    81a8:	eb000011 	bl	81f4 <RPI_GetArmTimer>
    81ac:	e1a02000 	mov	r2, r0
    81b0:	e3a030aa 	mov	r3, #170	; 0xaa
    81b4:	e5823008 	str	r3, [r2, #8]
    81b8:	eb000135 	bl	8694 <RPI_MiniUartInit>
    81bc:	ebffffb0 	bl	8084 <_enable_interrupts>
    81c0:	e59f3028 	ldr	r3, [pc, #40]	; 81f0 <kernel_main+0x94>
    81c4:	e24bc020 	sub	ip, fp, #32
    81c8:	e1a0e003 	mov	lr, r3
    81cc:	e8be000f 	ldm	lr!, {r0, r1, r2, r3}
    81d0:	e8ac000f 	stmia	ip!, {r0, r1, r2, r3}
    81d4:	e89e0007 	ldm	lr, {r0, r1, r2}
    81d8:	e88c0007 	stm	ip, {r0, r1, r2}
    81dc:	e24b3020 	sub	r3, fp, #32
    81e0:	e1a00003 	mov	r0, r3
    81e4:	eb0001a7 	bl	8888 <RPI_printString>
    81e8:	ebffffaa 	bl	8098 <_init>
    81ec:	eafffffe 	b	81ec <kernel_main+0x90>
    81f0:	00008d78 	andeq	r8, r0, r8, ror sp

000081f4 <RPI_GetArmTimer>:
    81f4:	e52db004 	push	{fp}		; (str fp, [sp, #-4]!)
    81f8:	e28db000 	add	fp, sp, #0
    81fc:	e59f3010 	ldr	r3, [pc, #16]	; 8214 <RPI_GetArmTimer+0x20>
    8200:	e5933000 	ldr	r3, [r3]
    8204:	e1a00003 	mov	r0, r3
    8208:	e28bd000 	add	sp, fp, #0
    820c:	e49db004 	pop	{fp}		; (ldr fp, [sp], #4)
    8210:	e12fff1e 	bx	lr
    8214:	00008d94 	muleq	r0, r4, sp

00008218 <RPI_ArmTimerInit>:
    8218:	e52db004 	push	{fp}		; (str fp, [sp, #-4]!)
    821c:	e28db000 	add	fp, sp, #0
    8220:	e320f000 	nop	{0}
    8224:	e28bd000 	add	sp, fp, #0
    8228:	e49db004 	pop	{fp}		; (ldr fp, [sp], #4)
    822c:	e12fff1e 	bx	lr

00008230 <RPI_GetGpio>:
    8230:	e52db004 	push	{fp}		; (str fp, [sp, #-4]!)
    8234:	e28db000 	add	fp, sp, #0
    8238:	e59f3010 	ldr	r3, [pc, #16]	; 8250 <RPI_GetGpio+0x20>
    823c:	e5933000 	ldr	r3, [r3]
    8240:	e1a00003 	mov	r0, r3
    8244:	e28bd000 	add	sp, fp, #0
    8248:	e49db004 	pop	{fp}		; (ldr fp, [sp], #4)
    824c:	e12fff1e 	bx	lr
    8250:	00008d98 	muleq	r0, r8, sp

00008254 <RPI_SetGpioPinFunction>:
    8254:	e52db004 	push	{fp}		; (str fp, [sp, #-4]!)
    8258:	e28db000 	add	fp, sp, #0
    825c:	e24dd014 	sub	sp, sp, #20
    8260:	e1a03000 	mov	r3, r0
    8264:	e1a02001 	mov	r2, r1
    8268:	e54b300d 	strb	r3, [fp, #-13]
    826c:	e1a03002 	mov	r3, r2
    8270:	e54b300e 	strb	r3, [fp, #-14]
    8274:	e59f30ec 	ldr	r3, [pc, #236]	; 8368 <RPI_SetGpioPinFunction+0x114>
    8278:	e5932000 	ldr	r2, [r3]
    827c:	e55b300d 	ldrb	r3, [fp, #-13]
    8280:	e59f10e4 	ldr	r1, [pc, #228]	; 836c <RPI_SetGpioPinFunction+0x118>
    8284:	e0831391 	umull	r1, r3, r1, r3
    8288:	e1a031a3 	lsr	r3, r3, #3
    828c:	e6ef3073 	uxtb	r3, r3
    8290:	e1a03103 	lsl	r3, r3, #2
    8294:	e0823003 	add	r3, r2, r3
    8298:	e50b3008 	str	r3, [fp, #-8]
    829c:	e51b3008 	ldr	r3, [fp, #-8]
    82a0:	e5933000 	ldr	r3, [r3]
    82a4:	e50b300c 	str	r3, [fp, #-12]
    82a8:	e55b200d 	ldrb	r2, [fp, #-13]
    82ac:	e59f30b8 	ldr	r3, [pc, #184]	; 836c <RPI_SetGpioPinFunction+0x118>
    82b0:	e0831293 	umull	r1, r3, r3, r2
    82b4:	e1a011a3 	lsr	r1, r3, #3
    82b8:	e1a03001 	mov	r3, r1
    82bc:	e1a03103 	lsl	r3, r3, #2
    82c0:	e0833001 	add	r3, r3, r1
    82c4:	e1a03083 	lsl	r3, r3, #1
    82c8:	e0423003 	sub	r3, r2, r3
    82cc:	e6ef3073 	uxtb	r3, r3
    82d0:	e1a02003 	mov	r2, r3
    82d4:	e1a03002 	mov	r3, r2
    82d8:	e1a03083 	lsl	r3, r3, #1
    82dc:	e0833002 	add	r3, r3, r2
    82e0:	e3a02007 	mov	r2, #7
    82e4:	e1a03312 	lsl	r3, r2, r3
    82e8:	e1e03003 	mvn	r3, r3
    82ec:	e1a02003 	mov	r2, r3
    82f0:	e51b300c 	ldr	r3, [fp, #-12]
    82f4:	e0033002 	and	r3, r3, r2
    82f8:	e50b300c 	str	r3, [fp, #-12]
    82fc:	e55b000e 	ldrb	r0, [fp, #-14]
    8300:	e55b200d 	ldrb	r2, [fp, #-13]
    8304:	e59f3060 	ldr	r3, [pc, #96]	; 836c <RPI_SetGpioPinFunction+0x118>
    8308:	e0831293 	umull	r1, r3, r3, r2
    830c:	e1a011a3 	lsr	r1, r3, #3
    8310:	e1a03001 	mov	r3, r1
    8314:	e1a03103 	lsl	r3, r3, #2
    8318:	e0833001 	add	r3, r3, r1
    831c:	e1a03083 	lsl	r3, r3, #1
    8320:	e0423003 	sub	r3, r2, r3
    8324:	e6ef3073 	uxtb	r3, r3
    8328:	e1a02003 	mov	r2, r3
    832c:	e1a03002 	mov	r3, r2
    8330:	e1a03083 	lsl	r3, r3, #1
    8334:	e0833002 	add	r3, r3, r2
    8338:	e1a03310 	lsl	r3, r0, r3
    833c:	e1a02003 	mov	r2, r3
    8340:	e51b300c 	ldr	r3, [fp, #-12]
    8344:	e1823003 	orr	r3, r2, r3
    8348:	e50b300c 	str	r3, [fp, #-12]
    834c:	e51b200c 	ldr	r2, [fp, #-12]
    8350:	e51b3008 	ldr	r3, [fp, #-8]
    8354:	e5832000 	str	r2, [r3]
    8358:	e320f000 	nop	{0}
    835c:	e28bd000 	add	sp, fp, #0
    8360:	e49db004 	pop	{fp}		; (ldr fp, [sp], #4)
    8364:	e12fff1e 	bx	lr
    8368:	00008d98 	muleq	r0, r8, sp
    836c:	cccccccd 	stclgt	12, cr12, [ip], {205}	; 0xcd

00008370 <RPI_GpioInit>:
    8370:	e52db004 	push	{fp}		; (str fp, [sp, #-4]!)
    8374:	e28db000 	add	fp, sp, #0
    8378:	e320f000 	nop	{0}
    837c:	e28bd000 	add	sp, fp, #0
    8380:	e49db004 	pop	{fp}		; (ldr fp, [sp], #4)
    8384:	e12fff1e 	bx	lr

00008388 <RPI_GetIrqController>:
    8388:	e52db004 	push	{fp}		; (str fp, [sp, #-4]!)
    838c:	e28db000 	add	fp, sp, #0
    8390:	e59f3010 	ldr	r3, [pc, #16]	; 83a8 <RPI_GetIrqController+0x20>
    8394:	e5933000 	ldr	r3, [r3]
    8398:	e1a00003 	mov	r0, r3
    839c:	e28bd000 	add	sp, fp, #0
    83a0:	e49db004 	pop	{fp}		; (ldr fp, [sp], #4)
    83a4:	e12fff1e 	bx	lr
    83a8:	00008d9c 	muleq	r0, ip, sp

000083ac <reset_vector>:
    83ac:	e24ee004 	sub	lr, lr, #4
    83b0:	e92d580f 	push	{r0, r1, r2, r3, fp, ip, lr}
    83b4:	e28db018 	add	fp, sp, #24
    83b8:	e24dd00c 	sub	sp, sp, #12
    83bc:	e3a03031 	mov	r3, #49	; 0x31
    83c0:	e54b301d 	strb	r3, [fp, #-29]	; 0xffffffe3
    83c4:	ebffff99 	bl	8230 <RPI_GetGpio>
    83c8:	e1a02000 	mov	r2, r0
    83cc:	e3a03801 	mov	r3, #65536	; 0x10000
    83d0:	e5823028 	str	r3, [r2, #40]	; 0x28
    83d4:	e55b301d 	ldrb	r3, [fp, #-29]	; 0xffffffe3
    83d8:	e1a00003 	mov	r0, r3
    83dc:	eb0000fb 	bl	87d0 <RPI_WriteToMiniUart>
    83e0:	eafffff7 	b	83c4 <reset_vector+0x18>

000083e4 <undefined_instruction_vector>:
    83e4:	e92d580f 	push	{r0, r1, r2, r3, fp, ip, lr}
    83e8:	e28db018 	add	fp, sp, #24
    83ec:	e24dd00c 	sub	sp, sp, #12
    83f0:	e3a03032 	mov	r3, #50	; 0x32
    83f4:	e54b301d 	strb	r3, [fp, #-29]	; 0xffffffe3
    83f8:	ebffff8c 	bl	8230 <RPI_GetGpio>
    83fc:	e1a02000 	mov	r2, r0
    8400:	e3a03801 	mov	r3, #65536	; 0x10000
    8404:	e5823028 	str	r3, [r2, #40]	; 0x28
    8408:	e55b301d 	ldrb	r3, [fp, #-29]	; 0xffffffe3
    840c:	e1a00003 	mov	r0, r3
    8410:	eb0000ee 	bl	87d0 <RPI_WriteToMiniUart>
    8414:	eafffff7 	b	83f8 <undefined_instruction_vector+0x14>

00008418 <software_interrupt_vector>:
    8418:	e92d580f 	push	{r0, r1, r2, r3, fp, ip, lr}
    841c:	e28db018 	add	fp, sp, #24
    8420:	e24dd00c 	sub	sp, sp, #12
    8424:	e3a03033 	mov	r3, #51	; 0x33
    8428:	e54b301d 	strb	r3, [fp, #-29]	; 0xffffffe3
    842c:	ebffff7f 	bl	8230 <RPI_GetGpio>
    8430:	e1a02000 	mov	r2, r0
    8434:	e3a03801 	mov	r3, #65536	; 0x10000
    8438:	e5823028 	str	r3, [r2, #40]	; 0x28
    843c:	e55b301d 	ldrb	r3, [fp, #-29]	; 0xffffffe3
    8440:	e1a00003 	mov	r0, r3
    8444:	eb0000e1 	bl	87d0 <RPI_WriteToMiniUart>
    8448:	eafffff7 	b	842c <software_interrupt_vector+0x14>

0000844c <prefetch_abort_vector>:
    844c:	e24ee004 	sub	lr, lr, #4
    8450:	e92d580f 	push	{r0, r1, r2, r3, fp, ip, lr}
    8454:	e28db018 	add	fp, sp, #24
    8458:	e24dd00c 	sub	sp, sp, #12
    845c:	e3a03034 	mov	r3, #52	; 0x34
    8460:	e54b301d 	strb	r3, [fp, #-29]	; 0xffffffe3
    8464:	ebffff71 	bl	8230 <RPI_GetGpio>
    8468:	e1a02000 	mov	r2, r0
    846c:	e3a03801 	mov	r3, #65536	; 0x10000
    8470:	e5823028 	str	r3, [r2, #40]	; 0x28
    8474:	e55b301d 	ldrb	r3, [fp, #-29]	; 0xffffffe3
    8478:	e1a00003 	mov	r0, r3
    847c:	eb0000d3 	bl	87d0 <RPI_WriteToMiniUart>
    8480:	eafffff7 	b	8464 <prefetch_abort_vector+0x18>

00008484 <data_abort_vector>:
    8484:	e24ee004 	sub	lr, lr, #4
    8488:	e92d580f 	push	{r0, r1, r2, r3, fp, ip, lr}
    848c:	e28db018 	add	fp, sp, #24
    8490:	e24dd00c 	sub	sp, sp, #12
    8494:	e3a03035 	mov	r3, #53	; 0x35
    8498:	e54b301d 	strb	r3, [fp, #-29]	; 0xffffffe3
    849c:	ebffff63 	bl	8230 <RPI_GetGpio>
    84a0:	e1a02000 	mov	r2, r0
    84a4:	e3a03801 	mov	r3, #65536	; 0x10000
    84a8:	e5823028 	str	r3, [r2, #40]	; 0x28
    84ac:	e55b301d 	ldrb	r3, [fp, #-29]	; 0xffffffe3
    84b0:	e1a00003 	mov	r0, r3
    84b4:	eb0000c5 	bl	87d0 <RPI_WriteToMiniUart>
    84b8:	eafffff7 	b	849c <data_abort_vector+0x18>

000084bc <interrupt_vector>:
    84bc:	e24ee004 	sub	lr, lr, #4
    84c0:	e92d581f 	push	{r0, r1, r2, r3, r4, fp, ip, lr}
    84c4:	e28db01c 	add	fp, sp, #28
    84c8:	eb000040 	bl	85d0 <RPI_GetSystemTimer>
    84cc:	e1a03000 	mov	r3, r0
    84d0:	e5933000 	ldr	r3, [r3]
    84d4:	e3530000 	cmp	r3, #0
    84d8:	0a000016 	beq	8538 <interrupt_vector+0x7c>
    84dc:	eb00003b 	bl	85d0 <RPI_GetSystemTimer>
    84e0:	e1a03000 	mov	r3, r0
    84e4:	e5932000 	ldr	r2, [r3]
    84e8:	e3c22002 	bic	r2, r2, #2
    84ec:	e5832000 	str	r2, [r3]
    84f0:	eb000036 	bl	85d0 <RPI_GetSystemTimer>
    84f4:	e1a02000 	mov	r2, r0
    84f8:	e5923010 	ldr	r3, [r2, #16]
    84fc:	e2833b61 	add	r3, r3, #99328	; 0x18400
    8500:	e2833e2a 	add	r3, r3, #672	; 0x2a0
    8504:	e5823010 	str	r3, [r2, #16]
    8508:	e59f30a4 	ldr	r3, [pc, #164]	; 85b4 <interrupt_vector+0xf8>
    850c:	e5933000 	ldr	r3, [r3]
    8510:	e3530009 	cmp	r3, #9
    8514:	da000002 	ble	8524 <interrupt_vector+0x68>
    8518:	e59f3094 	ldr	r3, [pc, #148]	; 85b4 <interrupt_vector+0xf8>
    851c:	e3a02000 	mov	r2, #0
    8520:	e5832000 	str	r2, [r3]
    8524:	e59f3088 	ldr	r3, [pc, #136]	; 85b4 <interrupt_vector+0xf8>
    8528:	e5933000 	ldr	r3, [r3]
    852c:	e2833001 	add	r3, r3, #1
    8530:	e59f207c 	ldr	r2, [pc, #124]	; 85b4 <interrupt_vector+0xf8>
    8534:	e5823000 	str	r3, [r2]
    8538:	e59f3078 	ldr	r3, [pc, #120]	; 85b8 <interrupt_vector+0xfc>
    853c:	e5933000 	ldr	r3, [r3]
    8540:	e5933000 	ldr	r3, [r3]
    8544:	e3530000 	cmp	r3, #0
    8548:	0a000016 	beq	85a8 <interrupt_vector+0xec>
    854c:	ebffff28 	bl	81f4 <RPI_GetArmTimer>
    8550:	e1a02000 	mov	r2, r0
    8554:	e3a03001 	mov	r3, #1
    8558:	e582300c 	str	r3, [r2, #12]
    855c:	e59f3058 	ldr	r3, [pc, #88]	; 85bc <interrupt_vector+0x100>
    8560:	e5933000 	ldr	r3, [r3]
    8564:	e3530000 	cmp	r3, #0
    8568:	0a000007 	beq	858c <interrupt_vector+0xd0>
    856c:	ebffff2f 	bl	8230 <RPI_GetGpio>
    8570:	e1a02000 	mov	r2, r0
    8574:	e3a03801 	mov	r3, #65536	; 0x10000
    8578:	e582301c 	str	r3, [r2, #28]
    857c:	e59f3038 	ldr	r3, [pc, #56]	; 85bc <interrupt_vector+0x100>
    8580:	e3a02000 	mov	r2, #0
    8584:	e5832000 	str	r2, [r3]
    8588:	ea000006 	b	85a8 <interrupt_vector+0xec>
    858c:	ebffff27 	bl	8230 <RPI_GetGpio>
    8590:	e1a02000 	mov	r2, r0
    8594:	e3a03801 	mov	r3, #65536	; 0x10000
    8598:	e5823028 	str	r3, [r2, #40]	; 0x28
    859c:	e59f3018 	ldr	r3, [pc, #24]	; 85bc <interrupt_vector+0x100>
    85a0:	e3a02001 	mov	r2, #1
    85a4:	e5832000 	str	r2, [r3]
    85a8:	e320f000 	nop	{0}
    85ac:	e24bd01c 	sub	sp, fp, #28
    85b0:	e8fd981f 	ldm	sp!, {r0, r1, r2, r3, r4, fp, ip, pc}^
    85b4:	00008dec 	andeq	r8, r0, ip, ror #27
    85b8:	00008d9c 	muleq	r0, ip, sp
    85bc:	00008df0 	strdeq	r8, [r0], -r0

000085c0 <fast_interrupt_vector>:
    85c0:	e24db004 	sub	fp, sp, #4
    85c4:	e320f000 	nop	{0}
    85c8:	e28bd004 	add	sp, fp, #4
    85cc:	e25ef004 	subs	pc, lr, #4

000085d0 <RPI_GetSystemTimer>:
    85d0:	e52db004 	push	{fp}		; (str fp, [sp, #-4]!)
    85d4:	e28db000 	add	fp, sp, #0
    85d8:	e59f3010 	ldr	r3, [pc, #16]	; 85f0 <RPI_GetSystemTimer+0x20>
    85dc:	e5933000 	ldr	r3, [r3]
    85e0:	e1a00003 	mov	r0, r3
    85e4:	e28bd000 	add	sp, fp, #0
    85e8:	e49db004 	pop	{fp}		; (ldr fp, [sp], #4)
    85ec:	e12fff1e 	bx	lr
    85f0:	00008da0 	andeq	r8, r0, r0, lsr #27

000085f4 <RPI_WaitMicroSeconds>:
    85f4:	e52db004 	push	{fp}		; (str fp, [sp, #-4]!)
    85f8:	e28db000 	add	fp, sp, #0
    85fc:	e24dd014 	sub	sp, sp, #20
    8600:	e50b0010 	str	r0, [fp, #-16]
    8604:	e59f303c 	ldr	r3, [pc, #60]	; 8648 <RPI_WaitMicroSeconds+0x54>
    8608:	e5933000 	ldr	r3, [r3]
    860c:	e5933004 	ldr	r3, [r3, #4]
    8610:	e50b3008 	str	r3, [fp, #-8]
    8614:	e320f000 	nop	{0}
    8618:	e59f3028 	ldr	r3, [pc, #40]	; 8648 <RPI_WaitMicroSeconds+0x54>
    861c:	e5933000 	ldr	r3, [r3]
    8620:	e5932004 	ldr	r2, [r3, #4]
    8624:	e51b3008 	ldr	r3, [fp, #-8]
    8628:	e0422003 	sub	r2, r2, r3
    862c:	e51b3010 	ldr	r3, [fp, #-16]
    8630:	e1520003 	cmp	r2, r3
    8634:	3afffff7 	bcc	8618 <RPI_WaitMicroSeconds+0x24>
    8638:	e320f000 	nop	{0}
    863c:	e28bd000 	add	sp, fp, #0
    8640:	e49db004 	pop	{fp}		; (ldr fp, [sp], #4)
    8644:	e12fff1e 	bx	lr
    8648:	00008da0 	andeq	r8, r0, r0, lsr #27

0000864c <RPI_GetAux>:
    864c:	e52db004 	push	{fp}		; (str fp, [sp, #-4]!)
    8650:	e28db000 	add	fp, sp, #0
    8654:	e59f3010 	ldr	r3, [pc, #16]	; 866c <RPI_GetAux+0x20>
    8658:	e5933000 	ldr	r3, [r3]
    865c:	e1a00003 	mov	r0, r3
    8660:	e28bd000 	add	sp, fp, #0
    8664:	e49db004 	pop	{fp}		; (ldr fp, [sp], #4)
    8668:	e12fff1e 	bx	lr
    866c:	00008da4 	andeq	r8, r0, r4, lsr #27

00008670 <RPI_GetMiniUart>:
    8670:	e52db004 	push	{fp}		; (str fp, [sp, #-4]!)
    8674:	e28db000 	add	fp, sp, #0
    8678:	e59f3010 	ldr	r3, [pc, #16]	; 8690 <RPI_GetMiniUart+0x20>
    867c:	e5933000 	ldr	r3, [r3]
    8680:	e1a00003 	mov	r0, r3
    8684:	e28bd000 	add	sp, fp, #0
    8688:	e49db004 	pop	{fp}		; (ldr fp, [sp], #4)
    868c:	e12fff1e 	bx	lr
    8690:	00008da8 	andeq	r8, r0, r8, lsr #27

00008694 <RPI_MiniUartInit>:
    8694:	e92d4800 	push	{fp, lr}
    8698:	e28db004 	add	fp, sp, #4
    869c:	e24dd008 	sub	sp, sp, #8
    86a0:	ebfffee2 	bl	8230 <RPI_GetGpio>
    86a4:	e50b0008 	str	r0, [fp, #-8]
    86a8:	e59f3114 	ldr	r3, [pc, #276]	; 87c4 <RPI_MiniUartInit+0x130>
    86ac:	e5933000 	ldr	r3, [r3]
    86b0:	e59f210c 	ldr	r2, [pc, #268]	; 87c4 <RPI_MiniUartInit+0x130>
    86b4:	e5922000 	ldr	r2, [r2]
    86b8:	e5922004 	ldr	r2, [r2, #4]
    86bc:	e3822001 	orr	r2, r2, #1
    86c0:	e5832004 	str	r2, [r3, #4]
    86c4:	e59f30fc 	ldr	r3, [pc, #252]	; 87c8 <RPI_MiniUartInit+0x134>
    86c8:	e5933000 	ldr	r3, [r3]
    86cc:	e3a02000 	mov	r2, #0
    86d0:	e5832004 	str	r2, [r3, #4]
    86d4:	e59f30ec 	ldr	r3, [pc, #236]	; 87c8 <RPI_MiniUartInit+0x134>
    86d8:	e5933000 	ldr	r3, [r3]
    86dc:	e3a02000 	mov	r2, #0
    86e0:	e5832020 	str	r2, [r3, #32]
    86e4:	e59f30dc 	ldr	r3, [pc, #220]	; 87c8 <RPI_MiniUartInit+0x134>
    86e8:	e5933000 	ldr	r3, [r3]
    86ec:	e3a02003 	mov	r2, #3
    86f0:	e583200c 	str	r2, [r3, #12]
    86f4:	e59f30cc 	ldr	r3, [pc, #204]	; 87c8 <RPI_MiniUartInit+0x134>
    86f8:	e5933000 	ldr	r3, [r3]
    86fc:	e3a02000 	mov	r2, #0
    8700:	e5832010 	str	r2, [r3, #16]
    8704:	e59f30bc 	ldr	r3, [pc, #188]	; 87c8 <RPI_MiniUartInit+0x134>
    8708:	e5933000 	ldr	r3, [r3]
    870c:	e3a020c6 	mov	r2, #198	; 0xc6
    8710:	e5832008 	str	r2, [r3, #8]
    8714:	e59f30ac 	ldr	r3, [pc, #172]	; 87c8 <RPI_MiniUartInit+0x134>
    8718:	e5933000 	ldr	r3, [r3]
    871c:	e59f20a8 	ldr	r2, [pc, #168]	; 87cc <RPI_MiniUartInit+0x138>
    8720:	e5832028 	str	r2, [r3, #40]	; 0x28
    8724:	e3a01002 	mov	r1, #2
    8728:	e3a0000e 	mov	r0, #14
    872c:	ebfffec8 	bl	8254 <RPI_SetGpioPinFunction>
    8730:	e3a01002 	mov	r1, #2
    8734:	e3a0000f 	mov	r0, #15
    8738:	ebfffec5 	bl	8254 <RPI_SetGpioPinFunction>
    873c:	e51b3008 	ldr	r3, [fp, #-8]
    8740:	e3a02000 	mov	r2, #0
    8744:	e5832094 	str	r2, [r3, #148]	; 0x94
    8748:	e3a03000 	mov	r3, #0
    874c:	e50b300c 	str	r3, [fp, #-12]
    8750:	ea000002 	b	8760 <RPI_MiniUartInit+0xcc>
    8754:	e51b300c 	ldr	r3, [fp, #-12]
    8758:	e2833001 	add	r3, r3, #1
    875c:	e50b300c 	str	r3, [fp, #-12]
    8760:	e51b300c 	ldr	r3, [fp, #-12]
    8764:	e3530095 	cmp	r3, #149	; 0x95
    8768:	dafffff9 	ble	8754 <RPI_MiniUartInit+0xc0>
    876c:	e51b3008 	ldr	r3, [fp, #-8]
    8770:	e3a02903 	mov	r2, #49152	; 0xc000
    8774:	e5832098 	str	r2, [r3, #152]	; 0x98
    8778:	e3a03000 	mov	r3, #0
    877c:	e50b300c 	str	r3, [fp, #-12]
    8780:	ea000002 	b	8790 <RPI_MiniUartInit+0xfc>
    8784:	e51b300c 	ldr	r3, [fp, #-12]
    8788:	e2833001 	add	r3, r3, #1
    878c:	e50b300c 	str	r3, [fp, #-12]
    8790:	e51b300c 	ldr	r3, [fp, #-12]
    8794:	e3530095 	cmp	r3, #149	; 0x95
    8798:	dafffff9 	ble	8784 <RPI_MiniUartInit+0xf0>
    879c:	e51b3008 	ldr	r3, [fp, #-8]
    87a0:	e3a02000 	mov	r2, #0
    87a4:	e5832098 	str	r2, [r3, #152]	; 0x98
    87a8:	e59f3018 	ldr	r3, [pc, #24]	; 87c8 <RPI_MiniUartInit+0x134>
    87ac:	e5933000 	ldr	r3, [r3]
    87b0:	e3a02003 	mov	r2, #3
    87b4:	e5832020 	str	r2, [r3, #32]
    87b8:	e320f000 	nop	{0}
    87bc:	e24bd004 	sub	sp, fp, #4
    87c0:	e8bd8800 	pop	{fp, pc}
    87c4:	00008da4 	andeq	r8, r0, r4, lsr #27
    87c8:	00008da8 	andeq	r8, r0, r8, lsr #27
    87cc:	0000010e 	andeq	r0, r0, lr, lsl #2

000087d0 <RPI_WriteToMiniUart>:
    87d0:	e52db004 	push	{fp}		; (str fp, [sp, #-4]!)
    87d4:	e28db000 	add	fp, sp, #0
    87d8:	e24dd00c 	sub	sp, sp, #12
    87dc:	e1a03000 	mov	r3, r0
    87e0:	e54b3005 	strb	r3, [fp, #-5]
    87e4:	e320f000 	nop	{0}
    87e8:	e59f3030 	ldr	r3, [pc, #48]	; 8820 <RPI_WriteToMiniUart+0x50>
    87ec:	e5933000 	ldr	r3, [r3]
    87f0:	e5933014 	ldr	r3, [r3, #20]
    87f4:	e2033020 	and	r3, r3, #32
    87f8:	e3530000 	cmp	r3, #0
    87fc:	0afffff9 	beq	87e8 <RPI_WriteToMiniUart+0x18>
    8800:	e59f3018 	ldr	r3, [pc, #24]	; 8820 <RPI_WriteToMiniUart+0x50>
    8804:	e5933000 	ldr	r3, [r3]
    8808:	e55b2005 	ldrb	r2, [fp, #-5]
    880c:	e5832000 	str	r2, [r3]
    8810:	e320f000 	nop	{0}
    8814:	e28bd000 	add	sp, fp, #0
    8818:	e49db004 	pop	{fp}		; (ldr fp, [sp], #4)
    881c:	e12fff1e 	bx	lr
    8820:	00008da8 	andeq	r8, r0, r8, lsr #27

00008824 <RPI_printStringOfLen>:
    8824:	e92d4800 	push	{fp, lr}
    8828:	e28db004 	add	fp, sp, #4
    882c:	e24dd010 	sub	sp, sp, #16
    8830:	e50b0010 	str	r0, [fp, #-16]
    8834:	e50b1014 	str	r1, [fp, #-20]	; 0xffffffec
    8838:	e3a03000 	mov	r3, #0
    883c:	e50b3008 	str	r3, [fp, #-8]
    8840:	ea000008 	b	8868 <RPI_printStringOfLen+0x44>
    8844:	e51b3010 	ldr	r3, [fp, #-16]
    8848:	e2832001 	add	r2, r3, #1
    884c:	e50b2010 	str	r2, [fp, #-16]
    8850:	e5d33000 	ldrb	r3, [r3]
    8854:	e1a00003 	mov	r0, r3
    8858:	ebffffdc 	bl	87d0 <RPI_WriteToMiniUart>
    885c:	e51b3008 	ldr	r3, [fp, #-8]
    8860:	e2833001 	add	r3, r3, #1
    8864:	e50b3008 	str	r3, [fp, #-8]
    8868:	e51b2008 	ldr	r2, [fp, #-8]
    886c:	e51b3014 	ldr	r3, [fp, #-20]	; 0xffffffec
    8870:	e1520003 	cmp	r2, r3
    8874:	bafffff2 	blt	8844 <RPI_printStringOfLen+0x20>
    8878:	e51b3014 	ldr	r3, [fp, #-20]	; 0xffffffec
    887c:	e1a00003 	mov	r0, r3
    8880:	e24bd004 	sub	sp, fp, #4
    8884:	e8bd8800 	pop	{fp, pc}

00008888 <RPI_printString>:
    8888:	e92d4800 	push	{fp, lr}
    888c:	e28db004 	add	fp, sp, #4
    8890:	e24dd008 	sub	sp, sp, #8
    8894:	e50b0008 	str	r0, [fp, #-8]
    8898:	ea000005 	b	88b4 <RPI_printString+0x2c>
    889c:	e51b3008 	ldr	r3, [fp, #-8]
    88a0:	e2832001 	add	r2, r3, #1
    88a4:	e50b2008 	str	r2, [fp, #-8]
    88a8:	e5d33000 	ldrb	r3, [r3]
    88ac:	e1a00003 	mov	r0, r3
    88b0:	ebffffc6 	bl	87d0 <RPI_WriteToMiniUart>
    88b4:	e51b3008 	ldr	r3, [fp, #-8]
    88b8:	e5d33000 	ldrb	r3, [r3]
    88bc:	e3530000 	cmp	r3, #0
    88c0:	1afffff5 	bne	889c <RPI_printString+0x14>
    88c4:	e320f000 	nop	{0}
    88c8:	e24bd004 	sub	sp, fp, #4
    88cc:	e8bd8800 	pop	{fp, pc}

000088d0 <RPI_ReadFromMiniUart>:
    88d0:	e92d4800 	push	{fp, lr}
    88d4:	e28db004 	add	fp, sp, #4
    88d8:	e24dd008 	sub	sp, sp, #8
    88dc:	e50b0008 	str	r0, [fp, #-8]
    88e0:	e50b100c 	str	r1, [fp, #-12]
    88e4:	e51b200c 	ldr	r2, [fp, #-12]
    88e8:	e51b1008 	ldr	r1, [fp, #-8]
    88ec:	e59f0010 	ldr	r0, [pc, #16]	; 8904 <RPI_ReadFromMiniUart+0x34>
    88f0:	eb00009e 	bl	8b70 <fifo_read>
    88f4:	e1a03000 	mov	r3, r0
    88f8:	e1a00003 	mov	r0, r3
    88fc:	e24bd004 	sub	sp, fp, #4
    8900:	e8bd8800 	pop	{fp, pc}
    8904:	00008df4 	strdeq	r8, [r0], -r4

00008908 <RPI_MiniUart_ISR>:
    8908:	e92d4800 	push	{fp, lr}
    890c:	e28db004 	add	fp, sp, #4
    8910:	e24dd008 	sub	sp, sp, #8
    8914:	e59f30c4 	ldr	r3, [pc, #196]	; 89e0 <RPI_MiniUart_ISR+0xd8>
    8918:	e5933000 	ldr	r3, [r3]
    891c:	e5933008 	ldr	r3, [r3, #8]
    8920:	e2033004 	and	r3, r3, #4
    8924:	e3530000 	cmp	r3, #0
    8928:	0a000016 	beq	8988 <RPI_MiniUart_ISR+0x80>
    892c:	e59f30ac 	ldr	r3, [pc, #172]	; 89e0 <RPI_MiniUart_ISR+0xd8>
    8930:	e5933000 	ldr	r3, [r3]
    8934:	e5933000 	ldr	r3, [r3]
    8938:	e50b3008 	str	r3, [fp, #-8]
    893c:	e59f309c 	ldr	r3, [pc, #156]	; 89e0 <RPI_MiniUart_ISR+0xd8>
    8940:	e5933000 	ldr	r3, [r3]
    8944:	e51b2008 	ldr	r2, [fp, #-8]
    8948:	e5832000 	str	r2, [r3]
    894c:	e59f308c 	ldr	r3, [pc, #140]	; 89e0 <RPI_MiniUart_ISR+0xd8>
    8950:	e5933000 	ldr	r3, [r3]
    8954:	e59f2084 	ldr	r2, [pc, #132]	; 89e0 <RPI_MiniUart_ISR+0xd8>
    8958:	e5922000 	ldr	r2, [r2]
    895c:	e5922004 	ldr	r2, [r2, #4]
    8960:	e3822001 	orr	r2, r2, #1
    8964:	e5832004 	str	r2, [r3, #4]
    8968:	e51b3008 	ldr	r3, [fp, #-8]
    896c:	e6ef3073 	uxtb	r3, r3
    8970:	e54b3009 	strb	r3, [fp, #-9]
    8974:	e24b3009 	sub	r3, fp, #9
    8978:	e3a02001 	mov	r2, #1
    897c:	e1a01003 	mov	r1, r3
    8980:	e59f005c 	ldr	r0, [pc, #92]	; 89e4 <RPI_MiniUart_ISR+0xdc>
    8984:	eb0000b2 	bl	8c54 <fifo_write>
    8988:	e59f3050 	ldr	r3, [pc, #80]	; 89e0 <RPI_MiniUart_ISR+0xd8>
    898c:	e5933000 	ldr	r3, [r3]
    8990:	e5933008 	ldr	r3, [r3, #8]
    8994:	e2033002 	and	r3, r3, #2
    8998:	e3530000 	cmp	r3, #0
    899c:	0a00000c 	beq	89d4 <RPI_MiniUart_ISR+0xcc>
    89a0:	e59f3038 	ldr	r3, [pc, #56]	; 89e0 <RPI_MiniUart_ISR+0xd8>
    89a4:	e5933000 	ldr	r3, [r3]
    89a8:	e5933014 	ldr	r3, [r3, #20]
    89ac:	e2033040 	and	r3, r3, #64	; 0x40
    89b0:	e3530000 	cmp	r3, #0
    89b4:	0a000006 	beq	89d4 <RPI_MiniUart_ISR+0xcc>
    89b8:	e59f3020 	ldr	r3, [pc, #32]	; 89e0 <RPI_MiniUart_ISR+0xd8>
    89bc:	e5933000 	ldr	r3, [r3]
    89c0:	e59f2018 	ldr	r2, [pc, #24]	; 89e0 <RPI_MiniUart_ISR+0xd8>
    89c4:	e5922000 	ldr	r2, [r2]
    89c8:	e5922004 	ldr	r2, [r2, #4]
    89cc:	e3c22001 	bic	r2, r2, #1
    89d0:	e5832004 	str	r2, [r3, #4]
    89d4:	e320f000 	nop	{0}
    89d8:	e24bd004 	sub	sp, fp, #4
    89dc:	e8bd8800 	pop	{fp, pc}
    89e0:	00008da8 	andeq	r8, r0, r8, lsr #27
    89e4:	00008df4 	strdeq	r8, [r0], -r4

000089e8 <shell_main>:
    89e8:	e92d4800 	push	{fp, lr}
    89ec:	e28db004 	add	fp, sp, #4
    89f0:	e24dd018 	sub	sp, sp, #24
    89f4:	ebffff1d 	bl	8670 <RPI_GetMiniUart>
    89f8:	e50b0010 	str	r0, [fp, #-16]
    89fc:	e24b301c 	sub	r3, fp, #28
    8a00:	e50b300c 	str	r3, [fp, #-12]
    8a04:	e59f007c 	ldr	r0, [pc, #124]	; 8a88 <shell_main+0xa0>
    8a08:	ebffff9e 	bl	8888 <RPI_printString>
    8a0c:	e3a03000 	mov	r3, #0
    8a10:	e50b3008 	str	r3, [fp, #-8]
    8a14:	ea000015 	b	8a70 <shell_main+0x88>
    8a18:	e320f000 	nop	{0}
    8a1c:	e51b3010 	ldr	r3, [fp, #-16]
    8a20:	e5933014 	ldr	r3, [r3, #20]
    8a24:	e2033001 	and	r3, r3, #1
    8a28:	e3530000 	cmp	r3, #0
    8a2c:	0afffffa 	beq	8a1c <shell_main+0x34>
    8a30:	e51b3010 	ldr	r3, [fp, #-16]
    8a34:	e5933000 	ldr	r3, [r3]
    8a38:	e6ef2073 	uxtb	r2, r3
    8a3c:	e51b300c 	ldr	r3, [fp, #-12]
    8a40:	e5c32000 	strb	r2, [r3]
    8a44:	e51b300c 	ldr	r3, [fp, #-12]
    8a48:	e5d33000 	ldrb	r3, [r3]
    8a4c:	e1a02003 	mov	r2, r3
    8a50:	e51b3010 	ldr	r3, [fp, #-16]
    8a54:	e5832000 	str	r2, [r3]
    8a58:	e51b300c 	ldr	r3, [fp, #-12]
    8a5c:	e2833001 	add	r3, r3, #1
    8a60:	e50b300c 	str	r3, [fp, #-12]
    8a64:	e51b3008 	ldr	r3, [fp, #-8]
    8a68:	e2833001 	add	r3, r3, #1
    8a6c:	e50b3008 	str	r3, [fp, #-8]
    8a70:	e51b3008 	ldr	r3, [fp, #-8]
    8a74:	e3530009 	cmp	r3, #9
    8a78:	daffffe6 	ble	8a18 <shell_main+0x30>
    8a7c:	e59f0008 	ldr	r0, [pc, #8]	; 8a8c <shell_main+0xa4>
    8a80:	ebffff80 	bl	8888 <RPI_printString>
    8a84:	eaffffde 	b	8a04 <shell_main+0x1c>
    8a88:	00008dac 	andeq	r8, r0, ip, lsr #27
    8a8c:	00008dd0 	ldrdeq	r8, [r0], -r0

00008a90 <SVC_Handler_Main>:
    8a90:	e92d4800 	push	{fp, lr}
    8a94:	e28db004 	add	fp, sp, #4
    8a98:	e24dd018 	sub	sp, sp, #24
    8a9c:	e50b0018 	str	r0, [fp, #-24]	; 0xffffffe8
    8aa0:	e50b101c 	str	r1, [fp, #-28]	; 0xffffffe4
    8aa4:	e51b3018 	ldr	r3, [fp, #-24]	; 0xffffffe8
    8aa8:	e3530000 	cmp	r3, #0
    8aac:	1a00000e 	bne	8aec <SVC_Handler_Main+0x5c>
    8ab0:	e51b301c 	ldr	r3, [fp, #-28]	; 0xffffffe4
    8ab4:	e5933000 	ldr	r3, [r3]
    8ab8:	e50b3008 	str	r3, [fp, #-8]
    8abc:	ebfffeeb 	bl	8670 <RPI_GetMiniUart>
    8ac0:	e50b000c 	str	r0, [fp, #-12]
    8ac4:	e320f000 	nop	{0}
    8ac8:	e51b300c 	ldr	r3, [fp, #-12]
    8acc:	e5933014 	ldr	r3, [r3, #20]
    8ad0:	e2033020 	and	r3, r3, #32
    8ad4:	e3530000 	cmp	r3, #0
    8ad8:	0afffffa 	beq	8ac8 <SVC_Handler_Main+0x38>
    8adc:	e51b300c 	ldr	r3, [fp, #-12]
    8ae0:	e51b2008 	ldr	r2, [fp, #-8]
    8ae4:	e5832000 	str	r2, [r3]
    8ae8:	ea00000d 	b	8b24 <SVC_Handler_Main+0x94>
    8aec:	e51b3018 	ldr	r3, [fp, #-24]	; 0xffffffe8
    8af0:	e3530001 	cmp	r3, #1
    8af4:	1a000004 	bne	8b0c <SVC_Handler_Main+0x7c>
    8af8:	ebfffdcc 	bl	8230 <RPI_GetGpio>
    8afc:	e1a02000 	mov	r2, r0
    8b00:	e3a03801 	mov	r3, #65536	; 0x10000
    8b04:	e5823028 	str	r3, [r2, #40]	; 0x28
    8b08:	ea000005 	b	8b24 <SVC_Handler_Main+0x94>
    8b0c:	e3a03033 	mov	r3, #51	; 0x33
    8b10:	e54b300d 	strb	r3, [fp, #-13]
    8b14:	e55b300d 	ldrb	r3, [fp, #-13]
    8b18:	e1a00003 	mov	r0, r3
    8b1c:	ebffff2b 	bl	87d0 <RPI_WriteToMiniUart>
    8b20:	eafffffb 	b	8b14 <SVC_Handler_Main+0x84>
    8b24:	e24bd004 	sub	sp, fp, #4
    8b28:	e8bd8800 	pop	{fp, pc}

00008b2c <fifo_init>:
    8b2c:	e52db004 	push	{fp}		; (str fp, [sp, #-4]!)
    8b30:	e28db000 	add	fp, sp, #0
    8b34:	e24dd00c 	sub	sp, sp, #12
    8b38:	e50b0008 	str	r0, [fp, #-8]
    8b3c:	e51b3008 	ldr	r3, [fp, #-8]
    8b40:	e3a02000 	mov	r2, #0
    8b44:	e583200c 	str	r2, [r3, #12]
    8b48:	e51b3008 	ldr	r3, [fp, #-8]
    8b4c:	e3a02000 	mov	r2, #0
    8b50:	e5832010 	str	r2, [r3, #16]
    8b54:	e51b3008 	ldr	r3, [fp, #-8]
    8b58:	e3a0200a 	mov	r2, #10
    8b5c:	e5832014 	str	r2, [r3, #20]
    8b60:	e320f000 	nop	{0}
    8b64:	e28bd000 	add	sp, fp, #0
    8b68:	e49db004 	pop	{fp}		; (ldr fp, [sp], #4)
    8b6c:	e12fff1e 	bx	lr

00008b70 <fifo_read>:
    8b70:	e52db004 	push	{fp}		; (str fp, [sp, #-4]!)
    8b74:	e28db000 	add	fp, sp, #0
    8b78:	e24dd01c 	sub	sp, sp, #28
    8b7c:	e50b0010 	str	r0, [fp, #-16]
    8b80:	e50b1014 	str	r1, [fp, #-20]	; 0xffffffec
    8b84:	e50b2018 	str	r2, [fp, #-24]	; 0xffffffe8
    8b88:	e51b3014 	ldr	r3, [fp, #-20]	; 0xffffffec
    8b8c:	e50b300c 	str	r3, [fp, #-12]
    8b90:	e3a03000 	mov	r3, #0
    8b94:	e50b3008 	str	r3, [fp, #-8]
    8b98:	ea000024 	b	8c30 <fifo_read+0xc0>
    8b9c:	e51b3010 	ldr	r3, [fp, #-16]
    8ba0:	e5932010 	ldr	r2, [r3, #16]
    8ba4:	e51b3010 	ldr	r3, [fp, #-16]
    8ba8:	e593300c 	ldr	r3, [r3, #12]
    8bac:	e1520003 	cmp	r2, r3
    8bb0:	0a000019 	beq	8c1c <fifo_read+0xac>
    8bb4:	e51b300c 	ldr	r3, [fp, #-12]
    8bb8:	e2832001 	add	r2, r3, #1
    8bbc:	e50b200c 	str	r2, [fp, #-12]
    8bc0:	e51b2010 	ldr	r2, [fp, #-16]
    8bc4:	e5922010 	ldr	r2, [r2, #16]
    8bc8:	e51b1010 	ldr	r1, [fp, #-16]
    8bcc:	e7d12002 	ldrb	r2, [r1, r2]
    8bd0:	e5c32000 	strb	r2, [r3]
    8bd4:	e51b3010 	ldr	r3, [fp, #-16]
    8bd8:	e5933010 	ldr	r3, [r3, #16]
    8bdc:	e2832001 	add	r2, r3, #1
    8be0:	e51b3010 	ldr	r3, [fp, #-16]
    8be4:	e5832010 	str	r2, [r3, #16]
    8be8:	e51b3010 	ldr	r3, [fp, #-16]
    8bec:	e5932010 	ldr	r2, [r3, #16]
    8bf0:	e51b3010 	ldr	r3, [fp, #-16]
    8bf4:	e5933014 	ldr	r3, [r3, #20]
    8bf8:	e1520003 	cmp	r2, r3
    8bfc:	1a000002 	bne	8c0c <fifo_read+0x9c>
    8c00:	e51b3010 	ldr	r3, [fp, #-16]
    8c04:	e3a02000 	mov	r2, #0
    8c08:	e5832010 	str	r2, [r3, #16]
    8c0c:	e51b3008 	ldr	r3, [fp, #-8]
    8c10:	e2833001 	add	r3, r3, #1
    8c14:	e50b3008 	str	r3, [fp, #-8]
    8c18:	ea000001 	b	8c24 <fifo_read+0xb4>
    8c1c:	e51b3008 	ldr	r3, [fp, #-8]
    8c20:	ea000007 	b	8c44 <fifo_read+0xd4>
    8c24:	e51b3008 	ldr	r3, [fp, #-8]
    8c28:	e2833001 	add	r3, r3, #1
    8c2c:	e50b3008 	str	r3, [fp, #-8]
    8c30:	e51b2008 	ldr	r2, [fp, #-8]
    8c34:	e51b3018 	ldr	r3, [fp, #-24]	; 0xffffffe8
    8c38:	e1520003 	cmp	r2, r3
    8c3c:	baffffd6 	blt	8b9c <fifo_read+0x2c>
    8c40:	e51b3018 	ldr	r3, [fp, #-24]	; 0xffffffe8
    8c44:	e1a00003 	mov	r0, r3
    8c48:	e28bd000 	add	sp, fp, #0
    8c4c:	e49db004 	pop	{fp}		; (ldr fp, [sp], #4)
    8c50:	e12fff1e 	bx	lr

00008c54 <fifo_write>:
    8c54:	e52db004 	push	{fp}		; (str fp, [sp, #-4]!)
    8c58:	e28db000 	add	fp, sp, #0
    8c5c:	e24dd01c 	sub	sp, sp, #28
    8c60:	e50b0010 	str	r0, [fp, #-16]
    8c64:	e50b1014 	str	r1, [fp, #-20]	; 0xffffffec
    8c68:	e50b2018 	str	r2, [fp, #-24]	; 0xffffffe8
    8c6c:	e51b3014 	ldr	r3, [fp, #-20]	; 0xffffffec
    8c70:	e50b300c 	str	r3, [fp, #-12]
    8c74:	e3a03000 	mov	r3, #0
    8c78:	e50b3008 	str	r3, [fp, #-8]
    8c7c:	ea00002c 	b	8d34 <fifo_write+0xe0>
    8c80:	e51b3010 	ldr	r3, [fp, #-16]
    8c84:	e593300c 	ldr	r3, [r3, #12]
    8c88:	e2832001 	add	r2, r3, #1
    8c8c:	e51b3010 	ldr	r3, [fp, #-16]
    8c90:	e5933010 	ldr	r3, [r3, #16]
    8c94:	e1520003 	cmp	r2, r3
    8c98:	0a00000a 	beq	8cc8 <fifo_write+0x74>
    8c9c:	e51b3010 	ldr	r3, [fp, #-16]
    8ca0:	e593300c 	ldr	r3, [r3, #12]
    8ca4:	e2832001 	add	r2, r3, #1
    8ca8:	e51b3010 	ldr	r3, [fp, #-16]
    8cac:	e5933014 	ldr	r3, [r3, #20]
    8cb0:	e1520003 	cmp	r2, r3
    8cb4:	1a000005 	bne	8cd0 <fifo_write+0x7c>
    8cb8:	e51b3010 	ldr	r3, [fp, #-16]
    8cbc:	e5933010 	ldr	r3, [r3, #16]
    8cc0:	e3530000 	cmp	r3, #0
    8cc4:	1a000001 	bne	8cd0 <fifo_write+0x7c>
    8cc8:	e51b3008 	ldr	r3, [fp, #-8]
    8ccc:	ea00001d 	b	8d48 <fifo_write+0xf4>
    8cd0:	e51b3010 	ldr	r3, [fp, #-16]
    8cd4:	e593200c 	ldr	r2, [r3, #12]
    8cd8:	e51b300c 	ldr	r3, [fp, #-12]
    8cdc:	e2831001 	add	r1, r3, #1
    8ce0:	e50b100c 	str	r1, [fp, #-12]
    8ce4:	e5d31000 	ldrb	r1, [r3]
    8ce8:	e51b3010 	ldr	r3, [fp, #-16]
    8cec:	e7c31002 	strb	r1, [r3, r2]
    8cf0:	e51b3010 	ldr	r3, [fp, #-16]
    8cf4:	e593300c 	ldr	r3, [r3, #12]
    8cf8:	e2832001 	add	r2, r3, #1
    8cfc:	e51b3010 	ldr	r3, [fp, #-16]
    8d00:	e583200c 	str	r2, [r3, #12]
    8d04:	e51b3010 	ldr	r3, [fp, #-16]
    8d08:	e593200c 	ldr	r2, [r3, #12]
    8d0c:	e51b3010 	ldr	r3, [fp, #-16]
    8d10:	e5933014 	ldr	r3, [r3, #20]
    8d14:	e1520003 	cmp	r2, r3
    8d18:	1a000002 	bne	8d28 <fifo_write+0xd4>
    8d1c:	e51b3010 	ldr	r3, [fp, #-16]
    8d20:	e3a02000 	mov	r2, #0
    8d24:	e583200c 	str	r2, [r3, #12]
    8d28:	e51b3008 	ldr	r3, [fp, #-8]
    8d2c:	e2833001 	add	r3, r3, #1
    8d30:	e50b3008 	str	r3, [fp, #-8]
    8d34:	e51b2008 	ldr	r2, [fp, #-8]
    8d38:	e51b3018 	ldr	r3, [fp, #-24]	; 0xffffffe8
    8d3c:	e1520003 	cmp	r2, r3
    8d40:	baffffce 	blt	8c80 <fifo_write+0x2c>
    8d44:	e51b3018 	ldr	r3, [fp, #-24]	; 0xffffffe8
    8d48:	e1a00003 	mov	r0, r3
    8d4c:	e28bd000 	add	sp, fp, #0
    8d50:	e49db004 	pop	{fp}		; (ldr fp, [sp], #4)
    8d54:	e12fff1e 	bx	lr

00008d58 <_svc_handler>:
    8d58:	e92d5fff 	push	{r0, r1, r2, r3, r4, r5, r6, r7, r8, r9, sl, fp, ip, lr}
    8d5c:	e51e0004 	ldr	r0, [lr, #-4]
    8d60:	e3c004ff 	bic	r0, r0, #-16777216	; 0xff000000
    8d64:	e1a0100d 	mov	r1, sp
    8d68:	e3500002 	cmp	r0, #2
    8d6c:	dbffff47 	blle	8a90 <SVC_Handler_Main>
    8d70:	e8bd5fff 	pop	{r0, r1, r2, r3, r4, r5, r6, r7, r8, r9, sl, fp, ip, lr}
    8d74:	e1b0f00e 	movs	pc, lr
